target datalayout = "e-m:e-p270:32:32-p271:32:32-p272:64:64-i64:64-i128:128-f80:128-n8:16:32:64-S128"
target triple = "x86_64-pc-linux-gnu"

%struct.PyModuleDef = type { %struct.PyModuleDef_Base, ptr, ptr, i64, ptr, ptr, ptr, ptr, ptr }
%struct.PyModuleDef_Base = type { %struct._object, ptr, i64, ptr }
%struct._object = type { %union.anon, ptr }
%union.anon = type { i64 }
%struct.pysqlite_Connection = type { %struct._object, ptr, ptr, i32, ptr, i32, i32, i32, i64, ptr, ptr, ptr, i32, ptr, ptr, ptr, ptr, ptr, ptr, ptr, ptr, ptr, ptr, ptr, ptr, ptr, ptr, ptr }
%struct.pysqlite_state = type { ptr, ptr, ptr, ptr, ptr, ptr, ptr, ptr, ptr, ptr, ptr, ptr, ptr, i32, i32, ptr, ptr, ptr, ptr, ptr, ptr, ptr, ptr, ptr, ptr, ptr, ptr, ptr, ptr }
%struct._callback_context = type { ptr, ptr, ptr }
%struct.anon = type { i32, i32 }

@.str = private unnamed_addr constant [37 x i8] c"Base Connection.__init__ not called.\00", align 1
@.str.1 = private unnamed_addr constant [37 x i8] c"Cannot operate on a closed database.\00", align 1
@.str.2 = private unnamed_addr constant [140 x i8] c"SQLite objects created in a thread can only be used in that same thread. The object was created in thread id %lu and this is thread id %lu.\00", align 1
@_sqlite3module = external global %struct.PyModuleDef, align 8
@_Py_NoneStruct = external global %struct._object, align 8
@.str.95 = private unnamed_addr constant [58 x i8] c"create_window_function() requires SQLite 3.25.0 or higher\00", align 1

; Function Attrs: alwaysinline nounwind uwtable
define internal void @Py_INCREF(ptr noundef %0) #5 {
  %2 = alloca ptr, align 8
  %3 = alloca i32, align 4
  %4 = alloca i32, align 4
  store ptr %0, ptr %2, align 8, !tbaa !22
  call void @llvm.lifetime.start.p0(i64 4, ptr %3) #8
  %5 = load ptr, ptr %2, align 8, !tbaa !22
  %6 = getelementptr inbounds nuw %struct._object, ptr %5, i32 0, i32 0
  %7 = getelementptr inbounds nuw %struct.anon, ptr %6, i32 0, i32 0
  %8 = load i32, ptr %7, align 8, !tbaa !65
  store i32 %8, ptr %3, align 4, !tbaa !30
  %9 = load i32, ptr %3, align 4, !tbaa !30
  %10 = icmp slt i32 %9, 0
  br i1 %10, label %11, label %12

11:                                               ; preds = %1
  store i32 1, ptr %4, align 4
  br label %18

12:                                               ; preds = %1
  %13 = load i32, ptr %3, align 4, !tbaa !30
  %14 = add i32 %13, 1
  %15 = load ptr, ptr %2, align 8, !tbaa !22
  %16 = getelementptr inbounds nuw %struct._object, ptr %15, i32 0, i32 0
  %17 = getelementptr inbounds nuw %struct.anon, ptr %16, i32 0, i32 0
  store i32 %14, ptr %17, align 8, !tbaa !65
  store i32 0, ptr %4, align 4
  br label %18

18:                                               ; preds = %12, %11
  call void @llvm.lifetime.end.p0(i64 4, ptr %3) #8
  %19 = load i32, ptr %4, align 4
  switch i32 %19, label %21 [
    i32 0, label %20
    i32 1, label %20
  ]

20:                                               ; preds = %18, %18
  ret void

21:                                               ; preds = %18
  unreachable
}

; Function Attrs: inlinehint nounwind uwtable
define internal ptr @pysqlite_get_state(ptr noundef %0) #2 {
  %2 = alloca ptr, align 8
  %3 = alloca ptr, align 8
  store ptr %0, ptr %2, align 8, !tbaa !22
  call void @llvm.lifetime.start.p0(i64 8, ptr %3) #8
  %4 = load ptr, ptr %2, align 8, !tbaa !22
  %5 = call ptr @PyModule_GetState(ptr noundef %4)
  store ptr %5, ptr %3, align 8, !tbaa !3
  %6 = load ptr, ptr %3, align 8, !tbaa !3
  call void @llvm.lifetime.end.p0(i64 8, ptr %3) #8
  ret ptr %6
}

; Function Attrs: inlinehint nounwind uwtable
define internal ptr @_Py_NewRef(ptr noundef %0) #2 {
  %2 = alloca ptr, align 8
  store ptr %0, ptr %2, align 8, !tbaa !22
  %3 = load ptr, ptr %2, align 8, !tbaa !22
  call void @Py_INCREF(ptr noundef %3)
  %4 = load ptr, ptr %2, align 8, !tbaa !22
  ret ptr %4
}

; Function Attrs: inlinehint nounwind uwtable
define internal ptr @pysqlite_get_state_by_type(ptr noundef %0) #2 {
  %2 = alloca ptr, align 8
  %3 = alloca ptr, align 8
  store ptr %0, ptr %2, align 8, !tbaa !21
  call void @llvm.lifetime.start.p0(i64 8, ptr %3) #8
  %4 = load ptr, ptr %2, align 8, !tbaa !21
  %5 = call ptr @PyType_GetModuleByDef(ptr noundef %4, ptr noundef @_sqlite3module)
  store ptr %5, ptr %3, align 8, !tbaa !22
  %6 = load ptr, ptr %3, align 8, !tbaa !22
  %7 = call ptr @pysqlite_get_state(ptr noundef %6)
  call void @llvm.lifetime.end.p0(i64 8, ptr %3) #8
  ret ptr %7
}

; Function Attrs: inlinehint nounwind uwtable
define internal ptr @_Py_TYPE(ptr noundef %0) #2 {
  %2 = alloca ptr, align 8
  store ptr %0, ptr %2, align 8, !tbaa !22
  %3 = load ptr, ptr %2, align 8, !tbaa !22
  %4 = getelementptr inbounds nuw %struct._object, ptr %3, i32 0, i32 1
  %5 = load ptr, ptr %4, align 8, !tbaa !23
  ret ptr %5
}

; Function Attrs: nounwind uwtable
define internal ptr @create_callback_context(ptr noundef %0, ptr noundef %1) #0 {
  %3 = alloca ptr, align 8
  %4 = alloca ptr, align 8
  %5 = alloca ptr, align 8
  %6 = alloca ptr, align 8
  store ptr %0, ptr %3, align 8, !tbaa !21
  store ptr %1, ptr %4, align 8, !tbaa !22
  call void @llvm.lifetime.start.p0(i64 8, ptr %5) #8
  %7 = call ptr @PyMem_Malloc(i64 noundef 24)
  store ptr %7, ptr %5, align 8, !tbaa !64
  %8 = load ptr, ptr %5, align 8, !tbaa !64
  %9 = icmp ne ptr %8, null
  br i1 %9, label %10, label %25

10:                                               ; preds = %2
  call void @llvm.lifetime.start.p0(i64 8, ptr %6) #8
  %11 = load ptr, ptr %3, align 8, !tbaa !21
  %12 = call ptr @PyType_GetModule(ptr noundef %11)
  store ptr %12, ptr %6, align 8, !tbaa !22
  %13 = load ptr, ptr %4, align 8, !tbaa !22
  %14 = call ptr @_Py_NewRef(ptr noundef %13)
  %15 = load ptr, ptr %5, align 8, !tbaa !64
  %16 = getelementptr inbounds nuw %struct._callback_context, ptr %15, i32 0, i32 0
  store ptr %14, ptr %16, align 8, !tbaa !51
  %17 = load ptr, ptr %6, align 8, !tbaa !22
  %18 = call ptr @_Py_NewRef(ptr noundef %17)
  %19 = load ptr, ptr %5, align 8, !tbaa !64
  %20 = getelementptr inbounds nuw %struct._callback_context, ptr %19, i32 0, i32 1
  store ptr %18, ptr %20, align 8, !tbaa !53
  %21 = load ptr, ptr %6, align 8, !tbaa !22
  %22 = call ptr @pysqlite_get_state(ptr noundef %21)
  %23 = load ptr, ptr %5, align 8, !tbaa !64
  %24 = getelementptr inbounds nuw %struct._callback_context, ptr %23, i32 0, i32 2
  store ptr %22, ptr %24, align 8, !tbaa !82
  call void @llvm.lifetime.end.p0(i64 8, ptr %6) #8
  br label %25

25:                                               ; preds = %10, %2
  %26 = load ptr, ptr %5, align 8, !tbaa !64
  call void @llvm.lifetime.end.p0(i64 8, ptr %5) #8
  ret ptr %26
}

; Function Attrs: nounwind uwtable
define hidden i32 @pysqlite_check_connection(ptr noundef %0) #0 {
  %2 = alloca i32, align 4
  %3 = alloca ptr, align 8
  %4 = alloca ptr, align 8
  store ptr %0, ptr %3, align 8, !tbaa !3
  %5 = load ptr, ptr %3, align 8, !tbaa !3
  %6 = getelementptr inbounds nuw %struct.pysqlite_Connection, ptr %5, i32 0, i32 7
  %7 = load i32, ptr %6, align 8, !tbaa !7
  %8 = icmp ne i32 %7, 0
  br i1 %8, label %16, label %9

9:                                                ; preds = %1
  call void @llvm.lifetime.start.p0(i64 8, ptr %4) #8
  %10 = load ptr, ptr %3, align 8, !tbaa !3
  %11 = call ptr @_Py_TYPE(ptr noundef %10)
  %12 = call ptr @pysqlite_get_state_by_type(ptr noundef %11)
  store ptr %12, ptr %4, align 8, !tbaa !3
  %13 = load ptr, ptr %4, align 8, !tbaa !3
  %14 = getelementptr inbounds nuw %struct.pysqlite_state, ptr %13, i32 0, i32 8
  %15 = load ptr, ptr %14, align 8, !tbaa !17
  call void @PyErr_SetString(ptr noundef %15, ptr noundef @.str)
  store i32 0, ptr %2, align 4
  call void @llvm.lifetime.end.p0(i64 8, ptr %4) #8
  br label %28

16:                                               ; preds = %1
  %17 = load ptr, ptr %3, align 8, !tbaa !3
  %18 = getelementptr inbounds nuw %struct.pysqlite_Connection, ptr %17, i32 0, i32 1
  %19 = load ptr, ptr %18, align 8, !tbaa !19
  %20 = icmp ne ptr %19, null
  br i1 %20, label %27, label %21

21:                                               ; preds = %16
  %22 = load ptr, ptr %3, align 8, !tbaa !3
  %23 = getelementptr inbounds nuw %struct.pysqlite_Connection, ptr %22, i32 0, i32 2
  %24 = load ptr, ptr %23, align 8, !tbaa !20
  %25 = getelementptr inbounds nuw %struct.pysqlite_state, ptr %24, i32 0, i32 8
  %26 = load ptr, ptr %25, align 8, !tbaa !17
  call void @PyErr_SetString(ptr noundef %26, ptr noundef @.str.1)
  store i32 0, ptr %2, align 4
  br label %28

27:                                               ; preds = %16
  store i32 1, ptr %2, align 4
  br label %28

28:                                               ; preds = %27, %21, %9
  %29 = load i32, ptr %2, align 4
  ret i32 %29
}

; Function Attrs: nounwind uwtable
define hidden i32 @pysqlite_check_thread(ptr noundef %0) #0 {
  %2 = alloca i32, align 4
  %3 = alloca ptr, align 8
  store ptr %0, ptr %3, align 8, !tbaa !3
  %4 = load ptr, ptr %3, align 8, !tbaa !3
  %5 = getelementptr inbounds nuw %struct.pysqlite_Connection, ptr %4, i32 0, i32 6
  %6 = load i32, ptr %5, align 4, !tbaa !24
  %7 = icmp ne i32 %6, 0
  br i1 %7, label %8, label %24

8:                                                ; preds = %1
  %9 = call i64 @PyThread_get_thread_ident()
  %10 = load ptr, ptr %3, align 8, !tbaa !3
  %11 = getelementptr inbounds nuw %struct.pysqlite_Connection, ptr %10, i32 0, i32 8
  %12 = load i64, ptr %11, align 8, !tbaa !25
  %13 = icmp ne i64 %9, %12
  br i1 %13, label %14, label %23

14:                                               ; preds = %8
  %15 = load ptr, ptr %3, align 8, !tbaa !3
  %16 = getelementptr inbounds nuw %struct.pysqlite_Connection, ptr %15, i32 0, i32 26
  %17 = load ptr, ptr %16, align 8, !tbaa !26
  %18 = load ptr, ptr %3, align 8, !tbaa !3
  %19 = getelementptr inbounds nuw %struct.pysqlite_Connection, ptr %18, i32 0, i32 8
  %20 = load i64, ptr %19, align 8, !tbaa !25
  %21 = call i64 @PyThread_get_thread_ident()
  %22 = call ptr (ptr, ptr, ...) @PyErr_Format(ptr noundef %17, ptr noundef @.str.2, i64 noundef %20, i64 noundef %21)
  store i32 0, ptr %2, align 4
  br label %25

23:                                               ; preds = %8
  br label %24

24:                                               ; preds = %23, %1
  store i32 1, ptr %2, align 4
  br label %25

25:                                               ; preds = %24, %14
  %26 = load i32, ptr %2, align 4
  ret i32 %26
}

; Function Attrs: nounwind uwtable
define internal ptr @create_window_function_impl(ptr noundef %0, ptr noundef %1, ptr noundef %2, i32 noundef %3, ptr noundef %4) #0 {
  %6 = alloca ptr, align 8
  %7 = alloca ptr, align 8
  %8 = alloca ptr, align 8
  %9 = alloca ptr, align 8
  %10 = alloca i32, align 4
  %11 = alloca ptr, align 8
  %12 = alloca i32, align 4
  %13 = alloca i32, align 4
  %14 = alloca ptr, align 8
  %15 = alloca i32, align 4
  store ptr %0, ptr %7, align 8, !tbaa !3
  store ptr %1, ptr %8, align 8, !tbaa !21
  store ptr %2, ptr %9, align 8, !tbaa !42
  store i32 %3, ptr %10, align 4, !tbaa !30
  store ptr %4, ptr %11, align 8, !tbaa !22
  %16 = call i32 @sqlite3_libversion_number()
  %17 = icmp slt i32 %16, 3025000
  br i1 %17, label %18, label %22

18:                                               ; preds = %5
  %19 = load ptr, ptr %7, align 8, !tbaa !3
  %20 = getelementptr inbounds nuw %struct.pysqlite_Connection, ptr %19, i32 0, i32 27
  %21 = load ptr, ptr %20, align 8, !tbaa !99
  call void @PyErr_SetString(ptr noundef %21, ptr noundef @.str.95)
  store ptr null, ptr %6, align 8
  br label %72

22:                                               ; preds = %5
  %23 = load ptr, ptr %7, align 8, !tbaa !3
  %24 = call i32 @pysqlite_check_thread(ptr noundef %23)
  %25 = icmp ne i32 %24, 0
  br i1 %25, label %26, label %30

26:                                               ; preds = %22
  %27 = load ptr, ptr %7, align 8, !tbaa !3
  %28 = call i32 @pysqlite_check_connection(ptr noundef %27)
  %29 = icmp ne i32 %28, 0
  br i1 %29, label %31, label %30

30:                                               ; preds = %26, %22
  store ptr null, ptr %6, align 8
  br label %72

31:                                               ; preds = %26
  call void @llvm.lifetime.start.p0(i64 4, ptr %12) #8
  store i32 1, ptr %12, align 4, !tbaa !30
  call void @llvm.lifetime.start.p0(i64 4, ptr %13) #8
  %32 = load ptr, ptr %11, align 8, !tbaa !22
  %33 = icmp eq ptr %32, @_Py_NoneStruct
  br i1 %33, label %34, label %42

34:                                               ; preds = %31
  %35 = load ptr, ptr %7, align 8, !tbaa !3
  %36 = getelementptr inbounds nuw %struct.pysqlite_Connection, ptr %35, i32 0, i32 1
  %37 = load ptr, ptr %36, align 8, !tbaa !19
  %38 = load ptr, ptr %9, align 8, !tbaa !42
  %39 = load i32, ptr %10, align 4, !tbaa !30
  %40 = load i32, ptr %12, align 4, !tbaa !30
  %41 = call i32 @sqlite3_create_window_function(ptr noundef %37, ptr noundef %38, i32 noundef %39, i32 noundef %40, ptr noundef null, ptr noundef null, ptr noundef null, ptr noundef null, ptr noundef null, ptr noundef null)
  store i32 %41, ptr %13, align 4, !tbaa !30
  br label %61

42:                                               ; preds = %31
  call void @llvm.lifetime.start.p0(i64 8, ptr %14) #8
  %43 = load ptr, ptr %8, align 8, !tbaa !21
  %44 = load ptr, ptr %11, align 8, !tbaa !22
  %45 = call ptr @create_callback_context(ptr noundef %43, ptr noundef %44)
  store ptr %45, ptr %14, align 8, !tbaa !64
  %46 = load ptr, ptr %14, align 8, !tbaa !64
  %47 = icmp eq ptr %46, null
  br i1 %47, label %48, label %49

48:                                               ; preds = %42
  store ptr null, ptr %6, align 8
  store i32 1, ptr %15, align 4
  br label %58

49:                                               ; preds = %42
  %50 = load ptr, ptr %7, align 8, !tbaa !3
  %51 = getelementptr inbounds nuw %struct.pysqlite_Connection, ptr %50, i32 0, i32 1
  %52 = load ptr, ptr %51, align 8, !tbaa !19
  %53 = load ptr, ptr %9, align 8, !tbaa !42
  %54 = load i32, ptr %10, align 4, !tbaa !30
  %55 = load i32, ptr %12, align 4, !tbaa !30
  %56 = load ptr, ptr %14, align 8, !tbaa !64
  %57 = call i32 @sqlite3_create_window_function(ptr noundef %52, ptr noundef %53, i32 noundef %54, i32 noundef %55, ptr noundef %56, ptr noundef @step_callback, ptr noundef @final_callback, ptr noundef @value_callback, ptr noundef @inverse_callback, ptr noundef @destructor_callback)
  store i32 %57, ptr %13, align 4, !tbaa !30
  store i32 0, ptr %15, align 4
  br label %58

58:                                               ; preds = %49, %48
  call void @llvm.lifetime.end.p0(i64 8, ptr %14) #8
  %59 = load i32, ptr %15, align 4
  switch i32 %59, label %71 [
    i32 0, label %60
  ]

60:                                               ; preds = %58
  br label %61

61:                                               ; preds = %60, %34
  %62 = load i32, ptr %13, align 4, !tbaa !30
  %63 = icmp ne i32 %62, 0
  br i1 %63, label %64, label %70

64:                                               ; preds = %61
  %65 = load ptr, ptr %7, align 8, !tbaa !3
  %66 = getelementptr inbounds nuw %struct.pysqlite_Connection, ptr %65, i32 0, i32 26
  %67 = load ptr, ptr %66, align 8, !tbaa !26
  %68 = load i32, ptr %13, align 4, !tbaa !30
  %69 = call ptr @sqlite3_errstr(i32 noundef %68)
  call void @PyErr_SetString(ptr noundef %67, ptr noundef %69)
  store ptr null, ptr %6, align 8
  store i32 1, ptr %15, align 4
  br label %71

70:                                               ; preds = %61
  store ptr @_Py_NoneStruct, ptr %6, align 8
  store i32 1, ptr %15, align 4
  br label %71

71:                                               ; preds = %70, %64, %58
  call void @llvm.lifetime.end.p0(i64 4, ptr %13) #8
  call void @llvm.lifetime.end.p0(i64 4, ptr %12) #8
  br label %72

72:                                               ; preds = %71, %30, %18
  %73 = load ptr, ptr %6, align 8
  ret ptr %73
}