; Function Attrs: nounwind uwtable
define internal fastcc noundef ptr @create_window_function_impl(ptr noundef readonly captures(none) %0, ptr noundef %1, ptr noundef nonnull %2, i32 noundef %3, ptr noundef %4) unnamed_addr #0 {
  %6 = tail call i32 @sqlite3_libversion_number() #7
  %7 = icmp slt i32 %6, 3025000
  br i1 %7, label %8, label %11

8:                                                ; preds = %5
  %9 = getelementptr inbounds nuw i8, ptr %0, i64 216
  %10 = load ptr, ptr %9, align 8, !tbaa !75
  tail call void @PyErr_SetString(ptr noundef %10, ptr noundef nonnull @.str.95) #7
  br label %.thread

11:                                               ; preds = %5
  %12 = getelementptr inbounds nuw i8, ptr %0, i64 52
  %13 = load i32, ptr %12, align 4, !tbaa !21
  %.not.i = icmp eq i32 %13, 0
  br i1 %.not.i, label %22, label %14

14:                                               ; preds = %11
  %15 = tail call i64 @PyThread_get_thread_ident() #7
  %16 = getelementptr inbounds nuw i8, ptr %0, i64 64
  %17 = load i64, ptr %16, align 8, !tbaa !22
  %.not5.i = icmp eq i64 %15, %17
  br i1 %.not5.i, label %22, label %pysqlite_check_thread.exit

pysqlite_check_thread.exit:                       ; preds = %14
  %18 = getelementptr inbounds nuw i8, ptr %0, i64 208
  %19 = load ptr, ptr %18, align 8, !tbaa !23
  %20 = tail call i64 @PyThread_get_thread_ident() #7
  %21 = tail call ptr (ptr, ptr, ...) @PyErr_Format(ptr noundef %19, ptr noundef nonnull @.str.2, i64 noundef %17, i64 noundef %20) #7
  br label %.thread

22:                                               ; preds = %14, %11
  %23 = getelementptr inbounds nuw i8, ptr %0, i64 56
  %24 = load i32, ptr %23, align 8, !tbaa !3
  %.not.i28 = icmp eq i32 %24, 0
  br i1 %.not.i28, label %25, label %29

25:                                               ; preds = %22
  %26 = getelementptr i8, ptr %0, i64 8
  %.val.i = load ptr, ptr %26, align 8, !tbaa !16
  %27 = tail call ptr @PyType_GetModuleByDef(ptr noundef %.val.i, ptr noundef nonnull @_sqlite3module) #7
  %28 = tail call ptr @PyModule_GetState(ptr noundef %27) #7
  br label %pysqlite_check_connection.exit.thread

29:                                               ; preds = %22
  %30 = getelementptr inbounds nuw i8, ptr %0, i64 16
  %31 = load ptr, ptr %30, align 8, !tbaa !17
  %.not5.i29 = icmp eq ptr %31, null
  br i1 %.not5.i29, label %32, label %pysqlite_check_connection.exit

32:                                               ; preds = %29
  %33 = getelementptr inbounds nuw i8, ptr %0, i64 24
  %34 = load ptr, ptr %33, align 8, !tbaa !18
  br label %pysqlite_check_connection.exit.thread

pysqlite_check_connection.exit.thread:            ; preds = %25, %32
  %.sink.i = phi ptr [ %34, %32 ], [ %28, %25 ]
  %.str.1.sink.i = phi ptr [ @.str.1, %32 ], [ @.str, %25 ]
  %35 = getelementptr inbounds nuw i8, ptr %.sink.i, i64 64
  %36 = load ptr, ptr %35, align 8, !tbaa !19
  tail call void @PyErr_SetString(ptr noundef %36, ptr noundef nonnull %.str.1.sink.i) #7
  br label %.thread

pysqlite_check_connection.exit:                   ; preds = %29
  %37 = icmp eq ptr %4, @_Py_NoneStruct
  br i1 %37, label %38, label %40

38:                                               ; preds = %pysqlite_check_connection.exit
  %39 = tail call i32 @sqlite3_create_window_function(ptr noundef nonnull %31, ptr noundef nonnull %2, i32 noundef %3, i32 noundef 1, ptr noundef null, ptr noundef null, ptr noundef null, ptr noundef null, ptr noundef null, ptr noundef null) #7
  br label %58

40:                                               ; preds = %pysqlite_check_connection.exit
  %41 = tail call ptr @PyMem_Malloc(i64 noundef 24) #7
  %.not.i31 = icmp eq ptr %41, null
  br i1 %.not.i31, label %.thread, label %42

42:                                               ; preds = %40
  %43 = tail call ptr @PyType_GetModule(ptr noundef %1) #7
  %44 = load i32, ptr %4, align 8, !tbaa !34
  %45 = icmp slt i32 %44, 0
  br i1 %45, label %_Py_NewRef.exit.i, label %46

46:                                               ; preds = %42
  %47 = add nuw i32 %44, 1
  store i32 %47, ptr %4, align 8, !tbaa !34
  br label %_Py_NewRef.exit.i

_Py_NewRef.exit.i:                                ; preds = %46, %42
  store ptr %4, ptr %41, align 8, !tbaa !77
  %48 = load i32, ptr %43, align 8, !tbaa !34
  %49 = icmp slt i32 %48, 0
  br i1 %49, label %52, label %50

50:                                               ; preds = %_Py_NewRef.exit.i
  %51 = add nuw i32 %48, 1
  store i32 %51, ptr %43, align 8, !tbaa !34
  br label %52

52:                                               ; preds = %_Py_NewRef.exit.i, %50
  %53 = getelementptr inbounds nuw i8, ptr %41, i64 8
  store ptr %43, ptr %53, align 8, !tbaa !79
  %54 = tail call ptr @PyModule_GetState(ptr noundef nonnull %43) #7
  %55 = getelementptr inbounds nuw i8, ptr %41, i64 16
  store ptr %54, ptr %55, align 8, !tbaa !87
  %56 = load ptr, ptr %30, align 8, !tbaa !17
  %57 = tail call i32 @sqlite3_create_window_function(ptr noundef %56, ptr noundef nonnull %2, i32 noundef %3, i32 noundef 1, ptr noundef nonnull %41, ptr noundef nonnull @step_callback, ptr noundef nonnull @final_callback, ptr noundef nonnull @value_callback, ptr noundef nonnull @inverse_callback, ptr noundef nonnull @destructor_callback) #7
  br label %58

58:                                               ; preds = %52, %38
  %.021 = phi i32 [ %39, %38 ], [ %57, %52 ]
  %.not27 = icmp eq i32 %.021, 0
  br i1 %.not27, label %.thread, label %59

59:                                               ; preds = %58
  %60 = getelementptr inbounds nuw i8, ptr %0, i64 208
  %61 = load ptr, ptr %60, align 8, !tbaa !23
  %62 = tail call ptr @sqlite3_errstr(i32 noundef %.021) #7
  tail call void @PyErr_SetString(ptr noundef %61, ptr noundef %62) #7
  br label %.thread

.thread:                                          ; preds = %40, %pysqlite_check_connection.exit.thread, %pysqlite_check_thread.exit, %59, %58, %8
  %.020 = phi ptr [ null, %8 ], [ null, %pysqlite_check_thread.exit ], [ null, %59 ], [ @_Py_NoneStruct, %58 ], [ null, %pysqlite_check_connection.exit.thread ], [ null, %40 ]
  ret ptr %.020
}